target datalayout = "e-m:e-p270:32:32-p271:32:32-p272:64:64-i64:64-i128:128-f80:128-n8:16:32:64-S128"
target triple = "x86_64-pc-linux-gnu"

%struct.PROCLOCKTAG = type { ptr, ptr }
%struct.LOCK = type { %struct.LOCKTAG, i32, i32, %struct.dlist_head, %struct.dclist_head, [10 x i32], i32, [10 x i32], i32 }
%struct.LOCKTAG = type { i32, i32, i32, i16, i8, i8 }
%struct.dlist_head = type { %struct.dlist_node }
%struct.dlist_node = type { ptr, ptr }
%struct.dclist_head = type { %struct.dlist_head, i32 }
%struct.PROCLOCK = type { %struct.PROCLOCKTAG, ptr, i32, i32, %struct.dlist_node, %struct.dlist_node }

; Function Attrs: nounwind uwtable
define dso_local void @GrantLock(ptr noundef %0, ptr noundef %1, i32 noundef %2) #0 {
  %4 = alloca ptr, align 8
  %5 = alloca ptr, align 8
  %6 = alloca i32, align 4
  store ptr %0, ptr %4, align 8
  store ptr %1, ptr %5, align 8
  store i32 %2, ptr %6, align 4
  %7 = load ptr, ptr %4, align 8
  %8 = getelementptr inbounds nuw %struct.LOCK, ptr %7, i32 0, i32 8
  %9 = load i32, ptr %8, align 4
  %10 = add i32 %9, 1
  store i32 %10, ptr %8, align 4
  %11 = load ptr, ptr %4, align 8
  %12 = getelementptr inbounds nuw %struct.LOCK, ptr %11, i32 0, i32 7
  %13 = load i32, ptr %6, align 4
  %14 = sext i32 %13 to i64
  %15 = getelementptr inbounds [10 x i32], ptr %12, i64 0, i64 %14
  %16 = load i32, ptr %15, align 4
  %17 = add i32 %16, 1
  store i32 %17, ptr %15, align 4
  %18 = load i32, ptr %6, align 4
  %19 = shl i32 1, %18
  %20 = load ptr, ptr %4, align 8
  %21 = getelementptr inbounds nuw %struct.LOCK, ptr %20, i32 0, i32 1
  %22 = load i32, ptr %21, align 8
  %23 = or i32 %22, %19
  store i32 %23, ptr %21, align 8
  %24 = load ptr, ptr %4, align 8
  %25 = getelementptr inbounds nuw %struct.LOCK, ptr %24, i32 0, i32 7
  %26 = load i32, ptr %6, align 4
  %27 = sext i32 %26 to i64
  %28 = getelementptr inbounds [10 x i32], ptr %25, i64 0, i64 %27
  %29 = load i32, ptr %28, align 4
  %30 = load ptr, ptr %4, align 8
  %31 = getelementptr inbounds nuw %struct.LOCK, ptr %30, i32 0, i32 5
  %32 = load i32, ptr %6, align 4
  %33 = sext i32 %32 to i64
  %34 = getelementptr inbounds [10 x i32], ptr %31, i64 0, i64 %33
  %35 = load i32, ptr %34, align 4
  %36 = icmp eq i32 %29, %35
  br i1 %36, label %37, label %45

37:                                               ; preds = %3
  %38 = load i32, ptr %6, align 4
  %39 = shl i32 1, %38
  %40 = xor i32 %39, -1
  %41 = load ptr, ptr %4, align 8
  %42 = getelementptr inbounds nuw %struct.LOCK, ptr %41, i32 0, i32 2
  %43 = load i32, ptr %42, align 4
  %44 = and i32 %43, %40
  store i32 %44, ptr %42, align 4
  br label %45

45:                                               ; preds = %37, %3
  %46 = load i32, ptr %6, align 4
  %47 = shl i32 1, %46
  %48 = load ptr, ptr %5, align 8
  %49 = getelementptr inbounds nuw %struct.PROCLOCK, ptr %48, i32 0, i32 2
  %50 = load i32, ptr %49, align 8
  %51 = or i32 %50, %47
  store i32 %51, ptr %49, align 8
  ret void
}