; Function Attrs: mustprogress nofree norecurse nosync nounwind willreturn memory(argmem: readwrite) uwtable
define dso_local void @GrantLock(ptr noundef captures(none) %0, ptr noundef captures(none) %1, i32 noundef %2) local_unnamed_addr #9 {
  %4 = getelementptr inbounds nuw i8, ptr %0, i64 148
  %5 = load i32, ptr %4, align 4
  %6 = add i32 %5, 1
  store i32 %6, ptr %4, align 4
  %7 = getelementptr inbounds nuw i8, ptr %0, i64 108
  %8 = sext i32 %2 to i64
  %9 = getelementptr inbounds [10 x i32], ptr %7, i64 0, i64 %8
  %10 = load i32, ptr %9, align 4
  %11 = add i32 %10, 1
  store i32 %11, ptr %9, align 4
  %12 = shl nuw i32 1, %2
  %13 = getelementptr inbounds nuw i8, ptr %0, i64 16
  %14 = load i32, ptr %13, align 8
  %15 = or i32 %14, %12
  store i32 %15, ptr %13, align 8
  %16 = load i32, ptr %9, align 4
  %17 = getelementptr inbounds nuw i8, ptr %0, i64 64
  %18 = getelementptr inbounds [10 x i32], ptr %17, i64 0, i64 %8
  %19 = load i32, ptr %18, align 4
  %20 = icmp eq i32 %16, %19
  br i1 %20, label %21, label %26

21:                                               ; preds = %3
  %22 = xor i32 %12, -1
  %23 = getelementptr inbounds nuw i8, ptr %0, i64 20
  %24 = load i32, ptr %23, align 4
  %25 = and i32 %24, %22
  store i32 %25, ptr %23, align 4
  br label %26

26:                                               ; preds = %21, %3
  %27 = getelementptr inbounds nuw i8, ptr %1, i64 24
  %28 = load i32, ptr %27, align 8
  %29 = or i32 %28, %12
  store i32 %29, ptr %27, align 8
  ret void
}